(lp0
(i__main__
Section
p1
(dp2
S'text'
p3
S''
p4
sba(i__main__
Section
p5
(dp6
g3
S' '
p7
sba(i__main__
HTML_Link
p8
(dp9
S'add_date'
p10
S'1543872915'
p11
sg3
S'P2P Free and secure communications projects'
p12
sS'href'
p13
S'https://www.mbuf.net/p2p-chat/'
p14
sS'linkType'
p15
Nsba(i__main__
HTML_Link
p16
(dp17
g10
S'1543872706'
p18
sg3
S'Why I told my friends to stop using WhatsApp and Telegram'
p19
sg13
S'https://medium.freecodecamp.org/why-i-asked-my-friends-to-stop-using-whatsapp-and-telegram-e93346b3c1f0'
p20
sg15
Nsba(i__main__
Section
p21
(dp22
g3
g4
sba(i__main__
Section
p23
(dp24
g3
S'  '
p25
sba.